#include <math.h>
#include <stdio.h>
#include <stdlib.h>
#include <string.h>

int main()
{
	int n,i,j,m,a[100]={0};
	a[1]=a[2]=1;
	scanf("%d",&n);
	for(j=0;j<n;j++)
	{
		scanf("%d",&m);
		if(m==1||m==2)printf("1\n");
		else 
		{
			for(i=3;i<=m;i++)
			{
				a[i]=a[i-1]+a[i-2];
			}
		    printf("%d\n",a[m]);
		}
	}
}
