; ModuleID = 'source-C-CXX/60/114.c'
source_filename = "source-C-CXX/60/114.c"
target datalayout = "e-m:e-p270:32:32-p271:32:32-p272:64:64-i64:64-f80:128-n8:16:32:64-S128"
target triple = "x86_64-pc-linux-gnu"

@.str = private unnamed_addr constant [3 x i8] c"%d\00", align 1
@.str.2 = private unnamed_addr constant [4 x i8] c"%d\0A\00", align 1
@str = private unnamed_addr constant [2 x i8] c"1\00", align 1

; Function Attrs: nofree nounwind sspstrong uwtable
define dso_local i32 @main() local_unnamed_addr #0 {
  %1 = alloca i32, align 4
  %2 = alloca i32, align 4
  %3 = alloca [100 x i32], align 16
  %4 = bitcast i32* %1 to i8*
  call void @llvm.lifetime.start.p0i8(i64 4, i8* nonnull %4) #5
  %5 = bitcast i32* %2 to i8*
  call void @llvm.lifetime.start.p0i8(i64 4, i8* nonnull %5) #5
  %6 = bitcast [100 x i32]* %3 to i8*
  call void @llvm.lifetime.start.p0i8(i64 400, i8* nonnull %6) #5
  call void @llvm.memset.p0i8.i64(i8* noundef nonnull align 16 dereferenceable(400) %6, i8 0, i64 400, i1 false)
  %7 = getelementptr inbounds [100 x i32], [100 x i32]* %3, i64 0, i64 2
  store i32 1, i32* %7, align 8, !tbaa !5
  %8 = getelementptr inbounds [100 x i32], [100 x i32]* %3, i64 0, i64 1
  store i32 1, i32* %8, align 4, !tbaa !5
  %9 = call i32 (i8*, ...) @__isoc99_scanf(i8* getelementptr inbounds ([3 x i8], [3 x i8]* @.str, i64 0, i64 0), i32* nonnull %1)
  %10 = load i32, i32* %1, align 4, !tbaa !5
  %11 = icmp sgt i32 %10, 0
  br i1 %11, label %12, label %85

12:                                               ; preds = %0, %81
  %13 = phi i32 [ %82, %81 ], [ 0, %0 ]
  %14 = call i32 (i8*, ...) @__isoc99_scanf(i8* getelementptr inbounds ([3 x i8], [3 x i8]* @.str, i64 0, i64 0), i32* nonnull %2)
  %15 = load i32, i32* %2, align 4, !tbaa !5
  %16 = add i32 %15, -1
  %17 = icmp ult i32 %16, 2
  br i1 %17, label %30, label %18

18:                                               ; preds = %12
  %19 = icmp slt i32 %15, 3
  br i1 %19, label %76, label %20

20:                                               ; preds = %18
  %21 = add nuw i32 %15, 1
  %22 = zext i32 %21 to i64
  %23 = load i32, i32* %7, align 8, !tbaa !5
  %24 = add nsw i64 %22, -3
  %25 = add nsw i64 %22, -4
  %26 = and i64 %24, 3
  %27 = icmp ult i64 %25, 3
  br i1 %27, label %60, label %28

28:                                               ; preds = %20
  %29 = and i64 %24, -4
  br label %32

30:                                               ; preds = %12
  %31 = call i32 @puts(i8* nonnull dereferenceable(1) getelementptr inbounds ([2 x i8], [2 x i8]* @str, i64 0, i64 0))
  br label %81

32:                                               ; preds = %32, %28
  %33 = phi i32 [ %23, %28 ], [ %55, %32 ]
  %34 = phi i64 [ 3, %28 ], [ %57, %32 ]
  %35 = phi i64 [ %29, %28 ], [ %58, %32 ]
  %36 = add nsw i64 %34, -2
  %37 = getelementptr inbounds [100 x i32], [100 x i32]* %3, i64 0, i64 %36
  %38 = load i32, i32* %37, align 4, !tbaa !5
  %39 = add nsw i32 %38, %33
  %40 = getelementptr inbounds [100 x i32], [100 x i32]* %3, i64 0, i64 %34
  store i32 %39, i32* %40, align 4, !tbaa !5
  %41 = add nuw nsw i64 %34, 1
  %42 = add nsw i64 %34, -1
  %43 = getelementptr inbounds [100 x i32], [100 x i32]* %3, i64 0, i64 %42
  %44 = load i32, i32* %43, align 4, !tbaa !5
  %45 = add nsw i32 %44, %39
  %46 = getelementptr inbounds [100 x i32], [100 x i32]* %3, i64 0, i64 %41
  store i32 %45, i32* %46, align 4, !tbaa !5
  %47 = add nuw nsw i64 %34, 2
  %48 = getelementptr inbounds [100 x i32], [100 x i32]* %3, i64 0, i64 %34
  %49 = load i32, i32* %48, align 4, !tbaa !5
  %50 = add nsw i32 %49, %45
  %51 = getelementptr inbounds [100 x i32], [100 x i32]* %3, i64 0, i64 %47
  store i32 %50, i32* %51, align 4, !tbaa !5
  %52 = add nuw nsw i64 %34, 3
  %53 = getelementptr inbounds [100 x i32], [100 x i32]* %3, i64 0, i64 %41
  %54 = load i32, i32* %53, align 4, !tbaa !5
  %55 = add nsw i32 %54, %50
  %56 = getelementptr inbounds [100 x i32], [100 x i32]* %3, i64 0, i64 %52
  store i32 %55, i32* %56, align 4, !tbaa !5
  %57 = add nuw nsw i64 %34, 4
  %58 = add i64 %35, -4
  %59 = icmp eq i64 %58, 0
  br i1 %59, label %60, label %32, !llvm.loop !9

60:                                               ; preds = %32, %20
  %61 = phi i32 [ %23, %20 ], [ %55, %32 ]
  %62 = phi i64 [ 3, %20 ], [ %57, %32 ]
  %63 = icmp eq i64 %26, 0
  br i1 %63, label %76, label %64

64:                                               ; preds = %60, %64
  %65 = phi i32 [ %71, %64 ], [ %61, %60 ]
  %66 = phi i64 [ %73, %64 ], [ %62, %60 ]
  %67 = phi i64 [ %74, %64 ], [ %26, %60 ]
  %68 = add nsw i64 %66, -2
  %69 = getelementptr inbounds [100 x i32], [100 x i32]* %3, i64 0, i64 %68
  %70 = load i32, i32* %69, align 4, !tbaa !5
  %71 = add nsw i32 %70, %65
  %72 = getelementptr inbounds [100 x i32], [100 x i32]* %3, i64 0, i64 %66
  store i32 %71, i32* %72, align 4, !tbaa !5
  %73 = add nuw nsw i64 %66, 1
  %74 = add i64 %67, -1
  %75 = icmp eq i64 %74, 0
  br i1 %75, label %76, label %64, !llvm.loop !11

76:                                               ; preds = %60, %64, %18
  %77 = sext i32 %15 to i64
  %78 = getelementptr inbounds [100 x i32], [100 x i32]* %3, i64 0, i64 %77
  %79 = load i32, i32* %78, align 4, !tbaa !5
  %80 = call i32 (i8*, ...) @printf(i8* nonnull dereferenceable(1) getelementptr inbounds ([4 x i8], [4 x i8]* @.str.2, i64 0, i64 0), i32 %79)
  br label %81

81:                                               ; preds = %30, %76
  %82 = add nuw nsw i32 %13, 1
  %83 = load i32, i32* %1, align 4, !tbaa !5
  %84 = icmp slt i32 %82, %83
  br i1 %84, label %12, label %85, !llvm.loop !13

85:                                               ; preds = %81, %0
  call void @llvm.lifetime.end.p0i8(i64 400, i8* nonnull %6) #5
  call void @llvm.lifetime.end.p0i8(i64 4, i8* nonnull %5) #5
  call void @llvm.lifetime.end.p0i8(i64 4, i8* nonnull %4) #5
  ret i32 0
}

; Function Attrs: argmemonly mustprogress nofree nosync nounwind willreturn
declare void @llvm.lifetime.start.p0i8(i64 immarg, i8* nocapture) #1

; Function Attrs: argmemonly mustprogress nofree nounwind willreturn writeonly
declare void @llvm.memset.p0i8.i64(i8* nocapture writeonly, i8, i64, i1 immarg) #2

; Function Attrs: nofree nounwind
declare noundef i32 @__isoc99_scanf(i8* nocapture noundef readonly, ...) local_unnamed_addr #3

; Function Attrs: nofree nounwind
declare noundef i32 @printf(i8* nocapture noundef readonly, ...) local_unnamed_addr #3

; Function Attrs: argmemonly mustprogress nofree nosync nounwind willreturn
declare void @llvm.lifetime.end.p0i8(i64 immarg, i8* nocapture) #1

; Function Attrs: nofree nounwind
declare noundef i32 @puts(i8* nocapture noundef readonly) local_unnamed_addr #4


!llvm.module.flags = !{!0, !1, !2, !3}
!llvm.ident = !{!4}

!0 = !{i32 1, !"wchar_size", i32 4}
!1 = !{i32 7, !"PIC Level", i32 2}
!2 = !{i32 7, !"PIE Level", i32 2}
!3 = !{i32 7, !"uwtable", i32 1}
!4 = !{!"clang version 13.0.0"}
!5 = !{!6, !6, i64 0}
!6 = !{!"int", !7, i64 0}
!7 = !{!"omnipotent char", !8, i64 0}
!8 = !{!"Simple C/C++ TBAA"}
!9 = distinct !{!9, !10}
!10 = !{!"llvm.loop.mustprogress"}
!11 = distinct !{!11, !12}
!12 = !{!"llvm.loop.unroll.disable"}
!13 = distinct !{!13, !10}
